; Function Attrs: nounwind uwtable
define ptr @duckdb_je_ehooks_default_alloc_impl(ptr noundef %0, ptr noundef %1, i64 noundef %2, i64 noundef %3, ptr noundef %4, ptr noundef %5, i32 noundef %6) local_unnamed_addr #1 {
  %8 = zext i32 %6 to i64
  %9 = getelementptr inbounds nuw [0 x %struct.atomic_p_t], ptr @duckdb_je_arenas, i64 0, i64 %8
  %10 = load atomic i64, ptr %9 acquire, align 8
  %.0.i.i = inttoptr i64 %10 to ptr
  %11 = icmp eq i64 %10, 0
  br i1 %11, label %.split12, label %atomic_load_u.exit

.split12:                                         ; preds = %7
  %12 = tail call ptr @duckdb_je_extent_alloc_mmap(ptr noundef %1, i64 noundef %2, i64 noundef %3, ptr noundef %4, ptr noundef %5) #6
  br label %extent_alloc_core.exit

atomic_load_u.exit:                               ; preds = %7
  %13 = getelementptr inbounds nuw i8, ptr %.0.i.i, i64 10536
  %14 = load atomic i32, ptr %13 monotonic, align 4
  %15 = icmp eq i32 %14, 1
  br i1 %15, label %16, label %18

16:                                               ; preds = %atomic_load_u.exit
  %17 = tail call ptr @duckdb_je_extent_alloc_dss(ptr noundef %0, ptr noundef nonnull %.0.i.i, ptr noundef %1, i64 noundef %2, i64 noundef %3, ptr noundef %4, ptr noundef %5) #6
  %.not.i = icmp eq ptr %17, null
  br i1 %.not.i, label %.thread.i, label %extent_alloc_core.exit

18:                                               ; preds = %atomic_load_u.exit
  %19 = tail call ptr @duckdb_je_extent_alloc_mmap(ptr noundef %1, i64 noundef %2, i64 noundef %3, ptr noundef %4, ptr noundef %5) #6
  %.not27.i15 = icmp eq ptr %19, null
  br i1 %.not27.i15, label %21, label %extent_alloc_core.exit

.thread.i:                                        ; preds = %16
  %20 = tail call ptr @duckdb_je_extent_alloc_mmap(ptr noundef %1, i64 noundef %2, i64 noundef %3, ptr noundef %4, ptr noundef %5) #6
  %.not2729.i = icmp eq ptr %20, null
  br i1 %.not2729.i, label %.thread30.i, label %extent_alloc_core.exit

21:                                               ; preds = %18
  %22 = icmp eq i32 %14, 2
  br i1 %22, label %23, label %.thread30.i

23:                                               ; preds = %21
  %24 = tail call ptr @duckdb_je_extent_alloc_dss(ptr noundef %0, ptr noundef nonnull %.0.i.i, ptr noundef %1, i64 noundef %2, i64 noundef %3, ptr noundef %4, ptr noundef %5) #6
  %.not28.i = icmp eq ptr %24, null
  br i1 %.not28.i, label %.thread30.i, label %extent_alloc_core.exit

.thread30.i:                                      ; preds = %23, %21, %.thread.i
  br label %extent_alloc_core.exit

extent_alloc_core.exit:                           ; preds = %.split12, %.thread30.i, %23, %.thread.i, %18, %16
  %phi.call = phi ptr [ null, %.thread30.i ], [ %17, %16 ], [ %19, %18 ], [ %24, %23 ], [ %20, %.thread.i ], [ %12, %.split12 ]
  ret ptr %phi.call
}